BL51 BANKED LINKER/LOCATER V6.22                                                        07/23/2023  20:21:33  PAGE 1


BL51 BANKED LINKER/LOCATER V6.22, INVOKED BY:
E:\KEIL_V5\C51\BIN\BL51.EXE .\output\main.obj, .\source\STCBSP_V3.6.LIB TO .\output\BSP_Demo PRINT (.\list\BSP_Demo.m51)
>>  RAMSIZE (256) XDATA (0X0000-0X07FF)


MEMORY MODEL: SMALL


INPUT MODULES INCLUDED:
  .\output\main.obj (MAIN)
  .\source\STCBSP_V3.6.LIB (ADC)
  .\source\STCBSP_V3.6.LIB (BEEP)
  .\source\STCBSP_V3.6.LIB (DISPLAYER)
  .\source\STCBSP_V3.6.LIB (SYS)
  E:\KEIL_V5\C51\LIB\C51S.LIB (?C_STARTUP)
  E:\KEIL_V5\C51\LIB\C51S.LIB (?C?CLDOPTR)
  E:\KEIL_V5\C51\LIB\C51S.LIB (?C?UIDIV)
  E:\KEIL_V5\C51\LIB\C51S.LIB (?C?ILDPTR)
  E:\KEIL_V5\C51\LIB\C51S.LIB (?C?LMUL)
  E:\KEIL_V5\C51\LIB\C51S.LIB (?C?ULDIV)
  E:\KEIL_V5\C51\LIB\C51S.LIB (?C?SLDIV)
  E:\KEIL_V5\C51\LIB\C51S.LIB (?C?SLSHR)
  E:\KEIL_V5\C51\LIB\C51S.LIB (?C?LLDCODE)
  E:\KEIL_V5\C51\LIB\C51S.LIB (?C?LSTXDATA)
  E:\KEIL_V5\C51\LIB\C51S.LIB (?C?OFFXADD)
  E:\KEIL_V5\C51\LIB\C51S.LIB (?C?ICALL)
  E:\KEIL_V5\C51\LIB\C51S.LIB (?C_IBP)
  E:\KEIL_V5\C51\LIB\C51S.LIB (?C_INIT)


LINK MAP OF MODULE:  .\output\BSP_Demo (MAIN)


            TYPE    BASE      LENGTH    RELOCATION   SEGMENT NAME
            -----------------------------------------------------

            * * * * * * *   D A T A   M E M O R Y   * * * * * * *
            REG     0000H     0008H     ABSOLUTE     "REG BANK 0"
            DATA    0008H     0012H     UNIT         ?DT?SYS
            DATA    001AH     0002H     UNIT         ?DT?ADC
            DATA    001CH     0002H     UNIT         ?DT?GETULTRASONIC?SYS
            DATA    001EH     0001H     UNIT         ?C?LIB_DATA
                    001FH     0001H                  *** GAP ***
            BIT     0020H.0   0001H.7   UNIT         ?BI?SYS
            BIT     0021H.7   0000H.1   UNIT         ?BI?ADC
            DATA    0022H     000AH     UNIT         _DATA_GROUP_
            IDATA   002CH     0001H     UNIT         ?STACK

            * * * * * * *  X D A T A   M E M O R Y  * * * * * * *
            XDATA   0000H     006EH     UNIT         ?XD?SYS
            XDATA   006EH     001EH     UNIT         ?XD?ADC
            XDATA   008CH     000CH     UNIT         ?XD?DISPLAYER

            * * * * * * *   C O D E   M E M O R Y   * * * * * * *
            CODE    0000H     0003H     ABSOLUTE     
            CODE    0003H     0007H     UNIT         ?PR?GETADC?ADC
            CODE    000AH     0001H     UNIT         ?PR?_?NULLFUNC?SYS
            CODE    000BH     0003H     ABSOLUTE     
BL51 BANKED LINKER/LOCATER V6.22                                                      07/23/2023  20:21:33  PAGE 2


            CODE    000EH     001BH     UNIT         ?PR?DISPLAYERINIT?DISPLAYER
                    0029H     0002H                  *** GAP ***
            CODE    002BH     0003H     ABSOLUTE     
            CODE    002EH     000CH     UNIT         ?PR?GETBEEPSTATUS?BEEP
                    003AH     0001H                  *** GAP ***
            CODE    003BH     0003H     ABSOLUTE     
            CODE    003EH     020CH     UNIT         ?C?LIB_CODE
            CODE    024AH     01ACH     UNIT         ?PR?_?SYS_ADC_DRV?ADC
            CODE    03F6H     00EDH     UNIT         ?PR?SYS_TASK_1MS?SYS
            CODE    04E3H     00E9H     UNIT         ?PR?_?SYS_DISPLAY_DRV?DISPLAYER
            CODE    05CCH     00A8H     UNIT         ?PR?SYS_CCP_ISR?SYS
            CODE    0674H     00A4H     UNIT         ?C_INITSEG
            CODE    0718H     0093H     UNIT         ?PR?SYS_TASK_10MS?SYS
            CODE    07ABH     008CH     UNIT         ?C_C51STARTUP
            CODE    0837H     008BH     UNIT         ?PR?SYS_TASK_IR?SYS
            CODE    08C2H     007DH     UNIT         ?PR?MY100MS_CALLBACK?MAIN
            CODE    093FH     007DH     UNIT         ?PR?_SETEVENTCALLBACK?SYS
            CODE    09BCH     0078H     UNIT         ?PR?_SETBEEP?BEEP
            CODE    0A34H     0053H     UNIT         ?PR?GETULTRASONIC?SYS
            CODE    0A87H     0052H     UNIT         ?PR?SYS_TIMER0_ISR?SYS
            CODE    0AD9H     0047H     UNIT         ?PR?SYS_TIMER0_INIT?SYS
            CODE    0B20H     0046H     UNIT         ?PR?_GETADCNAVACT?ADC
            CODE    0B66H     0044H     UNIT         ?C?LDIV
            CODE    0BAAH     003FH     UNIT         ?PR?SYS_TASK_100MS?SYS
            CODE    0BE9H     003EH     UNIT         ?PR?MYSTC_OS?SYS
            CODE    0C27H     0033H     UNIT         ?PR?MAIN?MAIN
            CODE    0C5AH     0031H     UNIT         ?PR?_ADCINIT?ADC
            CODE    0C8BH     002BH     UNIT         ?PR?SYS_TASK_1S?SYS
            CODE    0CB6H     0028H     UNIT         ?PR?_?SYS_BEEP_DRV?BEEP
            CODE    0CDEH     0020H     UNIT         ?PR?BEEPINIT?BEEP
            CODE    0CFEH     0020H     UNIT         ?PR?_SEG7PRINT?DISPLAYER
            CODE    0D1EH     001EH     UNIT         ?CO?MAIN
            CODE    0D3CH     0011H     UNIT         ?PR?_SETCCP0?SYS
            CODE    0D4DH     000EH     UNIT         ?PR?_?SYS_GET_KNEVENT?ADC
            CODE    0D5BH     000EH     UNIT         ?PR?_?SYS_GET_EXTADCEVENT?ADC
            CODE    0D69H     0009H     UNIT         ?CO?ADC
            CODE    0D72H     0009H     UNIT         ?PR?_SETDISPLAYERAREA?DISPLAYER
            CODE    0D7BH     0009H     UNIT         ?PR?GETBEEPTIMER?SYS
            CODE    0D84H     0009H     UNIT         ?PR?_SETBEEPTIMER?SYS
            CODE    0D8DH     0007H     UNIT         ?PR?GETSYSPERFORMANCE?SYS
            CODE    0D94H     0006H     UNIT         ?PR?ADC_ISR?ADC
            CODE    0D9AH     0006H     UNIT         ?PR?_LEDPRINT?DISPLAYER
            CODE    0DA0H     0006H     UNIT         ?PR?MYSTC_INIT?SYS
            CODE    0DA6H     0003H     UNIT         ?PR?_?RET0FUNC?SYS
            CODE    0DA9H     0003H     UNIT         ?PR?CLRBEEPPIN?SYS



OVERLAY MAP OF MODULE:   .\output\BSP_Demo (MAIN)


SEGMENT                                   DATA_GROUP 
  +--> CALLED SEGMENT                   START    LENGTH
-------------------------------------------------------
?C_C51STARTUP                           -----    -----
  +--> ?PR?MAIN?MAIN
  +--> ?C_INITSEG
BL51 BANKED LINKER/LOCATER V6.22                                                      07/23/2023  20:21:33  PAGE 3



?PR?MAIN?MAIN                           -----    -----
  +--> ?PR?DISPLAYERINIT?DISPLAYER
  +--> ?PR?_ADCINIT?ADC
  +--> ?PR?_SETDISPLAYERAREA?DISPLAYER
  +--> ?PR?_SEG7PRINT?DISPLAYER
  +--> ?PR?MY100MS_CALLBACK?MAIN
  +--> ?PR?_SETEVENTCALLBACK?SYS
  +--> ?PR?MYSTC_INIT?SYS
  +--> ?PR?MYSTC_OS?SYS

?PR?DISPLAYERINIT?DISPLAYER             -----    -----
  +--> ?PR?_?SYS_DISPLAY_DRV?DISPLAYER

?PR?_?SYS_DISPLAY_DRV?DISPLAYER         -----    -----
  +--> ?CO?MAIN

?PR?_ADCINIT?ADC                        -----    -----
  +--> ?PR?_?SYS_ADC_DRV?ADC
  +--> ?PR?_?SYS_GET_KNEVENT?ADC
  +--> ?PR?_?SYS_GET_EXTADCEVENT?ADC

?PR?_?SYS_ADC_DRV?ADC                   -----    -----
  +--> ?CO?ADC

?PR?_SEG7PRINT?DISPLAYER                0024H    0008H

?PR?MY100MS_CALLBACK?MAIN               0022H    0002H
  +--> ?PR?GETADC?ADC
  +--> ?PR?_SEG7PRINT?DISPLAYER
  +--> ?PR?_LEDPRINT?DISPLAYER
  +--> ?PR?_SETBEEP?BEEP

?PR?_SETBEEP?BEEP                       0024H    0004H
  +--> ?PR?GETBEEPTIMER?SYS
  +--> ?PR?_SETBEEPTIMER?SYS
  +--> ?CO?MAIN
  +--> ?PR?_SETCCP0?SYS
  +--> ?PR?CLRBEEPPIN?SYS

?PR?_SETEVENTCALLBACK?SYS               0022H    0003H

?PR?MYSTC_INIT?SYS                      -----    -----
  +--> ?PR?SYS_TIMER0_INIT?SYS

?PR?SYS_TIMER0_INIT?SYS                 -----    -----
  +--> ?CO?MAIN

?PR?MYSTC_OS?SYS                        -----    -----
  +--> ?PR?SYS_TASK_IR?SYS
  +--> ?PR?SYS_TASK_1MS?SYS
  +--> ?PR?SYS_TASK_10MS?SYS
  +--> ?PR?SYS_TASK_100MS?SYS
  +--> ?PR?SYS_TASK_1S?SYS

?C_INITSEG                              -----    -----
  +--> ?PR?_?NULLFUNC?SYS
BL51 BANKED LINKER/LOCATER V6.22                                                      07/23/2023  20:21:33  PAGE 4


  +--> ?PR?_?RET0FUNC?SYS



SYMBOL TABLE OF MODULE:  .\output\BSP_Demo (MAIN)

  VALUE           TYPE          NAME
  ----------------------------------

  -------         MODULE        MAIN
  C:0000H         SYMBOL        _ICE_DUMMY_
  D:0080H         PUBLIC        P0
  D:0090H         PUBLIC        P1
  D:00A0H         PUBLIC        P2
  D:00B0H         PUBLIC        P3
  D:00C0H         PUBLIC        P4
  D:00C8H         PUBLIC        P5
  D:00E8H         PUBLIC        P6
  D:00F8H         PUBLIC        P7
  D:00A8H         PUBLIC        IE
  D:00B8H         PUBLIC        IP
  D:00D8H         PUBLIC        CCON
  C:0C27H         PUBLIC        main
  C:0D1EH         PUBLIC        SysClock
  D:0098H         PUBLIC        SCON
  D:0088H         PUBLIC        TCON
  C:08C2H         PUBLIC        my100mS_callback
  C:0D22H         PUBLIC        decode_table
  D:00D0H         PUBLIC        PSW
  -------         PROC          MY100MS_CALLBACK
  -------         DO            
  D:0022H         SYMBOL        num
  -------         ENDDO         
  C:08C2H         LINE#         17
  C:08C2H         LINE#         18
  C:08C2H         LINE#         19
  C:08D4H         LINE#         20
  C:090EH         LINE#         21
  C:0913H         LINE#         22
  C:091EH         LINE#         23
  C:091EH         LINE#         24
  C:0926H         LINE#         25
  C:0928H         LINE#         26
  C:0933H         LINE#         27
  C:0933H         LINE#         28
  C:093EH         LINE#         29
  C:093EH         LINE#         30
  -------         ENDPROC       MY100MS_CALLBACK
  -------         PROC          MAIN
  C:0C27H         LINE#         32
  C:0C27H         LINE#         33
  C:0C27H         LINE#         34
  C:0C2AH         LINE#         36
  C:0C2FH         LINE#         37
  C:0C36H         LINE#         38
  C:0C47H         LINE#         39
  C:0C52H         LINE#         41
BL51 BANKED LINKER/LOCATER V6.22                                                      07/23/2023  20:21:33  PAGE 5


  C:0C55H         LINE#         42
  C:0C55H         LINE#         43
  C:0C58H         LINE#         44
  -------         ENDPROC       MAIN
  -------         ENDMOD        MAIN

  -------         MODULE        ADC
  C:0000H         SYMBOL        _ICE_DUMMY_
  D:0080H         PUBLIC        P0
  D:0090H         PUBLIC        P1
  D:00A0H         PUBLIC        P2
  C:0D4DH         PUBLIC        _?sys_get_KNEvent
  D:001AH         PUBLIC        sys_EXTADCEvent
  D:00B0H         PUBLIC        P3
  D:00C0H         PUBLIC        P4
  D:00C8H         PUBLIC        P5
  D:00E8H         PUBLIC        P6
  D:00F8H         PUBLIC        P7
  B:00A8H.5       PUBLIC        EADC
  D:00A8H         PUBLIC        IE
  D:00BDH         PUBLIC        ADC_RES
  D:00B8H         PUBLIC        IP
  D:0097H         PUBLIC        CLK_DIV
  C:0C5AH         PUBLIC        _AdcInit
  D:00D8H         PUBLIC        CCON
  C:0D5BH         PUBLIC        _?sys_get_EXTADCEvent
  X:0070H         PUBLIC        AD_res
  D:00BCH         PUBLIC        ADC_CONTR
  D:0098H         PUBLIC        SCON
  D:0088H         PUBLIC        TCON
  C:024AH         PUBLIC        _?sys_ADC_drv
  B:0021H.7       PUBLIC        flag_ADC
  X:007AH         PUBLIC        sys_KN
  D:009DH         PUBLIC        P1ASF
  D:001BH         PUBLIC        sys_KNEvent
  D:00BEH         PUBLIC        ADC_RESL
  C:0003H         PUBLIC        GetADC
  C:0B20H         PUBLIC        _GetAdcNavAct
  C:0D94H         PUBLIC        ADC_isr
  D:00D0H         PUBLIC        PSW
  -------         PROC          ADC_ISR
  C:0D94H         LINE#         26
  C:0D94H         LINE#         27
  C:0D97H         LINE#         28
  C:0D99H         LINE#         29
  -------         ENDPROC       ADC_ISR
  -------         PROC          _?SYS_ADC_DRV
  -------         DO            
  X:006EH         SYMBOL        pc
  X:006FH         SYMBOL        counter
  i:0000H         SYMBOL        i
  C:0D69H         SYMBOL        ADC_ch
  -------         ENDDO         
  C:024AH         LINE#         31
  C:024CH         LINE#         35
  C:0252H         LINE#         36
  C:0254H         LINE#         37
BL51 BANKED LINKER/LOCATER V6.22                                                      07/23/2023  20:21:33  PAGE 6


  C:0282H         LINE#         38
  C:0282H         LINE#         39
  C:0282H         LINE#         40
  C:0292H         LINE#         41
  C:0294H         LINE#         42
  C:0294H         LINE#         43
  C:0294H         LINE#         44
  C:02A8H         LINE#         45
  C:02ABH         LINE#         46
  C:02AEH         LINE#         47
  C:02BEH         LINE#         48
  C:02C0H         LINE#         49
  C:02D4H         LINE#         50
  C:02D7H         LINE#         51
  C:02EBH         LINE#         52
  C:02FEH         LINE#         53
  C:0316H         LINE#         54
  C:0321H         LINE#         55
  C:0324H         LINE#         56
  C:0334H         LINE#         57
  C:0348H         LINE#         58
  C:035DH         LINE#         59
  C:036EH         LINE#         60
  C:0370H         LINE#         61
  C:0370H         LINE#         62
  C:0372H         LINE#         64
  C:0389H         LINE#         65
  C:039AH         LINE#         66
  C:039DH         LINE#         67
  C:039DH         LINE#         68
  C:039DH         LINE#         69
  C:03C0H         LINE#         70
  C:03D1H         LINE#         71
  C:03D5H         LINE#         72
  C:03D5H         LINE#         73
  C:03D5H         LINE#         74
  C:03DBH         LINE#         75
  C:03DBH         LINE#         76
  C:03DBH         LINE#         77
  C:03E7H         LINE#         78
  C:03F3H         LINE#         79
  C:03F3H         LINE#         80
  -------         ENDPROC       _?SYS_ADC_DRV
  -------         PROC          _?SYS_GET_KNEVENT
  -------         DO            
  i:0000H         SYMBOL        a
  -------         ENDDO         
  C:0D4DH         LINE#         82
  C:0D4FH         LINE#         84
  C:0D53H         LINE#         85
  C:0D56H         LINE#         86
  C:0D58H         LINE#         87
  -------         ENDPROC       _?SYS_GET_KNEVENT
  -------         PROC          _?SYS_GET_EXTADCEVENT
  -------         DO            
  i:0000H         SYMBOL        a
  -------         ENDDO         
BL51 BANKED LINKER/LOCATER V6.22                                                      07/23/2023  20:21:33  PAGE 7


  C:0D5BH         LINE#         89
  C:0D5DH         LINE#         91
  C:0D61H         LINE#         92
  C:0D64H         LINE#         93
  C:0D66H         LINE#         94
  -------         ENDPROC       _?SYS_GET_EXTADCEVENT
  -------         PROC          _ADCINIT
  D:0007H         SYMBOL        ADCsel
  C:0C5AH         LINE#         96
  C:0C5AH         LINE#         97
  C:0C5AH         LINE#         98
  C:0C5CH         LINE#         99
  C:0C5FH         LINE#         100
  C:0C62H         LINE#         101
  C:0C64H         LINE#         102
  C:0C72H         LINE#         103
  C:0C7EH         LINE#         104
  C:0C8AH         LINE#         105
  -------         ENDPROC       _ADCINIT
  -------         PROC          GETADC
  C:0003H         LINE#         107
  C:0003H         LINE#         108
  C:0009H         LINE#         109
  -------         ENDPROC       GETADC
  -------         PROC          _GETADCNAVACT
  D:0007H         SYMBOL        Nav_button
  -------         DO            
  D:0006H         SYMBOL        a
  -------         ENDDO         
  C:0B20H         LINE#         111
  C:0B20H         LINE#         112
  C:0B20H         LINE#         113
  C:0B30H         LINE#         114
  C:0B4BH         LINE#         115
  C:0B60H         LINE#         116
  C:0B63H         LINE#         117
  C:0B63H         LINE#         118
  C:0B65H         LINE#         119
  -------         ENDPROC       _GETADCNAVACT
  -------         ENDMOD        ADC

  -------         MODULE        BEEP
  C:0000H         SYMBOL        _ICE_DUMMY_
  D:0080H         PUBLIC        P0
  D:00B2H         PUBLIC        P3M0
  D:0090H         PUBLIC        P1
  D:00B1H         PUBLIC        P3M1
  D:00A0H         PUBLIC        P2
  D:00B0H         PUBLIC        P3
  D:00C0H         PUBLIC        P4
  D:00C8H         PUBLIC        P5
  D:00E8H         PUBLIC        P6
  D:00F8H         PUBLIC        P7
  D:00F9H         PUBLIC        CH
  C:0CB6H         PUBLIC        _?sys_beep_drv
  D:00A8H         PUBLIC        IE
  D:00E9H         PUBLIC        CL
BL51 BANKED LINKER/LOCATER V6.22                                                      07/23/2023  20:21:33  PAGE 8


  C:0CDEH         PUBLIC        BeepInit
  B:00D8H.6       PUBLIC        CR
  D:00DAH         PUBLIC        CCAPM0
  D:00B8H         PUBLIC        IP
  D:00D9H         PUBLIC        CMOD
  D:00D8H         PUBLIC        CCON
  C:002EH         PUBLIC        GetBeepStatus
  C:09BCH         PUBLIC        _SetBeep
  D:0098H         PUBLIC        SCON
  D:0088H         PUBLIC        TCON
  D:00D0H         PUBLIC        PSW
  B:00D8H.0       PUBLIC        CCF0
  -------         PROC          _?SYS_BEEP_DRV
  -------         DO            
  i:0000H         SYMBOL        a
  -------         ENDDO         
  C:0CB6H         LINE#         11
  C:0CBAH         LINE#         13
  C:0CC4H         LINE#         14
  C:0CD9H         LINE#         15
  -------         ENDPROC       _?SYS_BEEP_DRV
  -------         PROC          BEEPINIT
  C:0CDEH         LINE#         17
  C:0CDEH         LINE#         18
  C:0CDEH         LINE#         19
  C:0CE1H         LINE#         20
  C:0CE4H         LINE#         21
  C:0CE7H         LINE#         22
  C:0CEAH         LINE#         23
  C:0CEDH         LINE#         24
  C:0CEFH         LINE#         25
  C:0CFDH         LINE#         26
  -------         ENDPROC       BEEPINIT
  -------         PROC          _SETBEEP
  D:0024H         SYMBOL        Beep_freq
  D:0026H         SYMBOL        Beep_time
  -------         DO            
  D:0002H         SYMBOL        a
  D:0004H         SYMBOL        b
  -------         ENDDO         
  C:09BCH         LINE#         28
  C:09C4H         LINE#         29
  C:09C4H         LINE#         31
  C:09CBH         LINE#         32
  C:09D2H         LINE#         33
  C:09DDH         LINE#         34
  C:0A06H         LINE#         35
  C:0A1AH         LINE#         36
  C:0A21H         LINE#         37
  C:0A23H         LINE#         38
  C:0A26H         LINE#         39
  C:0A28H         LINE#         41
  C:0A2BH         LINE#         42
  C:0A2EH         LINE#         43
  C:0A2EH         LINE#         44
  C:0A31H         LINE#         45
  C:0A31H         LINE#         46
BL51 BANKED LINKER/LOCATER V6.22                                                      07/23/2023  20:21:33  PAGE 9


  C:0A33H         LINE#         47
  -------         ENDPROC       _SETBEEP
  -------         PROC          GETBEEPSTATUS
  C:002EH         LINE#         49
  C:002EH         LINE#         50
  C:0037H         LINE#         51
  C:0039H         LINE#         52
  -------         ENDPROC       GETBEEPSTATUS
  -------         ENDMOD        BEEP

  -------         MODULE        DISPLAYER
  C:0000H         SYMBOL        _ICE_DUMMY_
  D:0093H         PUBLIC        P0M1
  D:0096H         PUBLIC        P2M0
  D:0080H         PUBLIC        P0
  D:0095H         PUBLIC        P2M1
  D:0090H         PUBLIC        P1
  D:00A0H         PUBLIC        P2
  D:00B0H         PUBLIC        P3
  D:00C0H         PUBLIC        P4
  D:00C8H         PUBLIC        P5
  D:00E8H         PUBLIC        P6
  D:00F8H         PUBLIC        P7
  D:00A8H         PUBLIC        IE
  D:00B8H         PUBLIC        IP
  D:00D8H         PUBLIC        CCON
  C:0D9AH         PUBLIC        _LedPrint
  B:00A0H.0       PUBLIC        P20
  B:00A0H.1       PUBLIC        P21
  D:0098H         PUBLIC        SCON
  B:00A0H.2       PUBLIC        P22
  D:0088H         PUBLIC        TCON
  B:00A0H.3       PUBLIC        P23
  C:000EH         PUBLIC        DisplayerInit
  X:008CH         PUBLIC        sys_Disp
  C:0D72H         PUBLIC        _SetDisplayerArea
  C:0CFEH         PUBLIC        _Seg7Print
  C:04E3H         PUBLIC        _?sys_display_drv
  D:00D0H         PUBLIC        PSW
  D:0094H         PUBLIC        P0M0
  -------         PROC          _?SYS_DISPLAY_DRV
  C:04E3H         LINE#         16
  C:04E3H         LINE#         18
  C:04E6H         LINE#         19
  C:050FH         LINE#         20
  C:0515H         LINE#         21
  C:051BH         LINE#         22
  C:0521H         LINE#         23
  C:0527H         LINE#         24
  C:0531H         LINE#         25
  C:053BH         LINE#         26
  C:0545H         LINE#         27
  C:054FH         LINE#         28
  C:0551H         LINE#         29
  C:0551H         LINE#         30
  C:0559H         LINE#         31
  C:0582H         LINE#         33
BL51 BANKED LINKER/LOCATER V6.22                                                      07/23/2023  20:21:33  PAGE 10


  C:059DH         LINE#         34
  C:05A0H         LINE#         35
  C:05A0H         LINE#         36
  C:05B7H         LINE#         37
  C:05C3H         LINE#         39
  C:05CBH         LINE#         40
  -------         ENDPROC       _?SYS_DISPLAY_DRV
  -------         PROC          DISPLAYERINIT
  C:000EH         LINE#         42
  C:000EH         LINE#         43
  C:000EH         LINE#         44
  C:0011H         LINE#         45
  C:0014H         LINE#         46
  C:0017H         LINE#         47
  C:001AH         LINE#         48
  C:0028H         LINE#         49
  -------         ENDPROC       DISPLAYERINIT
  -------         PROC          _SETDISPLAYERAREA
  D:0007H         SYMBOL        Begin_of_scan
  D:0005H         SYMBOL        Ending_of_Scan
  C:0D72H         LINE#         51
  C:0D72H         LINE#         52
  C:0D77H         LINE#         53
  C:0D7AH         LINE#         54
  -------         ENDPROC       _SETDISPLAYERAREA
  -------         PROC          _SEG7PRINT
  D:0007H         SYMBOL        d0
  D:0005H         SYMBOL        d1
  D:0003H         SYMBOL        d2
  D:0027H         SYMBOL        d3
  D:0028H         SYMBOL        d4
  D:0029H         SYMBOL        d5
  D:002AH         SYMBOL        d6
  D:002BH         SYMBOL        d7
  C:0CFEH         LINE#         56
  C:0CFEH         LINE#         57
  C:0D03H         LINE#         58
  C:0D06H         LINE#         59
  C:0D09H         LINE#         60
  C:0D0DH         LINE#         61
  C:0D11H         LINE#         62
  C:0D15H         LINE#         63
  C:0D19H         LINE#         64
  C:0D1DH         LINE#         65
  -------         ENDPROC       _SEG7PRINT
  -------         PROC          _LEDPRINT
  D:0007H         SYMBOL        led_val
  C:0D9AH         LINE#         67
  C:0D9AH         LINE#         68
  C:0D9FH         LINE#         69
  -------         ENDPROC       _LEDPRINT
  -------         ENDMOD        DISPLAYER

  -------         MODULE        SYS
  C:0000H         SYMBOL        _ICE_DUMMY_
  X:0000H         PUBLIC        count_1mS
  B:00D8H.2       PUBLIC        CCF2
BL51 BANKED LINKER/LOCATER V6.22                                                      07/23/2023  20:21:33  PAGE 11


  D:0080H         PUBLIC        P0
  B:0020H.1       PUBLIC        flag_1S
  D:0090H         PUBLIC        P1
  D:00A0H         PUBLIC        P2
  D:00B0H         PUBLIC        P3
  D:00C0H         PUBLIC        P4
  X:0001H         PUBLIC        T1
  D:00C8H         PUBLIC        P5
  X:0003H         PUBLIC        T2
  B:00A8H.7       PUBLIC        EA
  D:00E8H         PUBLIC        P6
  D:00F8H         PUBLIC        P7
  D:0009H         PUBLIC        IrDatNum
  B:00D8H.7       PUBLIC        CF
  B:0020H.2       PUBLIC        Ir_Coder
  B:0020H.3       PUBLIC        Ir_RxBusy
  D:00A8H         PUBLIC        IE
  B:0020H.4       PUBLIC        Ir_TxBusy
  X:0005H         PUBLIC        userfunccall
  D:00FAH         PUBLIC        CCAP0H
  D:00FBH         PUBLIC        CCAP1H
  C:0837H         PUBLIC        sys_task_Ir
  D:000AH         PUBLIC        IrCount_j
  D:000BH         PUBLIC        IrRx_count
  D:000CH         PUBLIC        IrProtocol
  D:00EAH         PUBLIC        CCAP0L
  D:000DH         PUBLIC        IrTx_count
  D:00EBH         PUBLIC        CCAP1L
  D:00DAH         PUBLIC        CCAPM0
  D:00DBH         PUBLIC        CCAPM1
  D:000EH         PUBLIC        MainLoops
  D:00B8H         PUBLIC        IP
  B:00D0H.7       PUBLIC        CY
  B:0020H.5       PUBLIC        flag_10mS
  D:00D8H         PUBLIC        CCON
  C:0D7BH         PUBLIC        GetBeepTimer
  C:0A87H         PUBLIC        sys_Timer0_isr
  C:093FH         PUBLIC        _SetEventCallBack
  C:0DA0H         PUBLIC        MySTC_Init
  C:0BAAH         PUBLIC        sys_task_100mS
  D:0012H         PUBLIC        ModBus_interval_time
  C:0DA6H         PUBLIC        _?ret0func
  C:0A34H         PUBLIC        GetUltraSonic
  X:0029H         PUBLIC        count_10mS
  X:002AH         PUBLIC        stcDrivers
  C:0D84H         PUBLIC        _SetBeepTimer
  B:0020H.6       PUBLIC        flag_IrRxFinished
  D:0098H         PUBLIC        SCON
  C:0D3CH         PUBLIC        _SetCCP0
  C:0BE9H         PUBLIC        MySTC_OS
  D:0089H         PUBLIC        TMOD
  D:0088H         PUBLIC        TCON
  B:0020H.7       PUBLIC        flag_Ir
  B:00B0H.5       PUBLIC        P35
  D:0013H         PUBLIC        IrRxNum
  X:0060H         PUBLIC        SysPerformance
  D:008EH         PUBLIC        AUXR
BL51 BANKED LINKER/LOCATER V6.22                                                      07/23/2023  20:21:33  PAGE 12


  C:05CCH         PUBLIC        sys_CCP_isr
  C:03F6H         PUBLIC        sys_task_1mS
  B:00A8H.1       PUBLIC        ET0
  C:0DA9H         PUBLIC        ClrBeepPin
  D:008CH         PUBLIC        TH0
  B:0021H.0       PUBLIC        flag_100mS
  X:0065H         PUBLIC        distance
  D:008AH         PUBLIC        TL0
  D:0014H         PUBLIC        PollingMisses
  X:0067H         PUBLIC        sys_BP
  B:0088H.4       PUBLIC        TR0
  C:0C8BH         PUBLIC        sys_task_1S
  C:0D8DH         PUBLIC        GetSysPerformance
  B:0021H.1       PUBLIC        matchModBus
  X:006DH         PUBLIC        count_100mS
  B:0021H.2       PUBLIC        Ir_BitBusy
  D:0015H         PUBLIC        IrDat_count
  D:0016H         PUBLIC        IrMute_count
  B:0021H.3       PUBLIC        newFrame1
  C:0AD9H         PUBLIC        sys_Timer0_Init
  B:0021H.4       PUBLIC        newFrame2
  D:0017H         PUBLIC        IrDataPc
  C:000AH         PUBLIC        _?nullfunc
  B:0021H.5       PUBLIC        flag_1mS
  B:0021H.6       PUBLIC        newUS
  D:008FH         PUBLIC        INT_CLKO
  C:0718H         PUBLIC        sys_task_10mS
  D:00D0H         PUBLIC        PSW
  B:00D8H.0       PUBLIC        CCF0
  B:00B0H.4       PUBLIC        Beep
  B:00D8H.1       PUBLIC        CCF1
  -------         PROC          _?NULLFUNC
  C:000AH         LINE#         13
  -------         ENDPROC       _?NULLFUNC
  -------         PROC          _?RET0FUNC
  C:0DA6H         LINE#         14
  -------         ENDPROC       _?RET0FUNC
  -------         PROC          SYS_TIMER0_INIT
  C:0AD9H         LINE#         96
  C:0AD9H         LINE#         97
  C:0ADCH         LINE#         98
  C:0ADFH         LINE#         99
  C:0AF5H         LINE#         100
  C:0B1BH         LINE#         101
  C:0B1DH         LINE#         102
  C:0B1FH         LINE#         103
  -------         ENDPROC       SYS_TIMER0_INIT
  -------         PROC          SYS_TIMER0_ISR
  -------         DO            
  D:0008H         SYMBOL        i
  -------         ENDDO         
  C:0A87H         LINE#         105
  C:0A8BH         LINE#         107
  C:0A8EH         LINE#         108
  C:0A91H         LINE#         109
  C:0A96H         LINE#         110
  C:0A98H         LINE#         111
BL51 BANKED LINKER/LOCATER V6.22                                                      07/23/2023  20:21:33  PAGE 13


  C:0A98H         LINE#         112
  C:0A9EH         LINE#         113
  C:0AA4H         LINE#         114
  C:0AA7H         LINE#         115
  C:0AA9H         LINE#         116
  C:0AACH         LINE#         117
  C:0AB0H         LINE#         118
  C:0AB2H         LINE#         119
  C:0AB5H         LINE#         120
  C:0AB7H         LINE#         122
  C:0ABAH         LINE#         123
  C:0ABCH         LINE#         124
  C:0AC1H         LINE#         125
  C:0AC1H         LINE#         126
  C:0AC3H         LINE#         128
  C:0ACCH         LINE#         129
  C:0ACEH         LINE#         130
  C:0AD4H         LINE#         131
  C:0AD4H         LINE#         132
  C:0AD4H         LINE#         133
  C:0AD4H         LINE#         134
  -------         ENDPROC       SYS_TIMER0_ISR
  -------         PROC          GETULTRASONIC
  -------         DO            
  D:001CH         SYMBOL        a
  -------         ENDDO         
  C:0A34H         LINE#         138
  C:0A34H         LINE#         139
  C:0A34H         LINE#         140
  C:0A37H         LINE#         141
  C:0A39H         LINE#         142
  C:0A48H         LINE#         143
  C:0A7EH         LINE#         144
  C:0A7EH         LINE#         145
  C:0A86H         LINE#         146
  -------         ENDPROC       GETULTRASONIC
  -------         PROC          GETBEEPTIMER
  C:0D7BH         LINE#         148
  C:0D7BH         LINE#         149
  C:0D83H         LINE#         150
  -------         ENDPROC       GETBEEPTIMER
  -------         PROC          _SETBEEPTIMER
  D:0006H         SYMBOL        a
  C:0D84H         LINE#         152
  C:0D84H         LINE#         153
  C:0D8CH         LINE#         154
  -------         ENDPROC       _SETBEEPTIMER
  -------         PROC          _SETCCP0
  D:0006H         SYMBOL        step
  D:0004H         SYMBOL        next
  C:0D3CH         LINE#         156
  C:0D3CH         LINE#         157
  C:0D44H         LINE#         158
  C:0D4CH         LINE#         159
  -------         ENDPROC       _SETCCP0
  -------         PROC          CLRBEEPPIN
  C:0DA9H         LINE#         161
BL51 BANKED LINKER/LOCATER V6.22                                                      07/23/2023  20:21:33  PAGE 14


  C:0DA9H         LINE#         162
  C:0DABH         LINE#         163
  -------         ENDPROC       CLRBEEPPIN
  -------         PROC          SYS_CCP_ISR
  -------         DO            
  B:0020H.0       SYMBOL        a
  -------         ENDDO         
  C:05CCH         LINE#         165
  C:05DFH         LINE#         167
  C:05E6H         LINE#         168
  C:05EDH         LINE#         169
  C:05F0H         LINE#         170
  C:05F2H         LINE#         171
  C:0602H         LINE#         172
  C:0609H         LINE#         173
  C:060CH         LINE#         174
  C:060EH         LINE#         175
  C:0610H         LINE#         177
  C:0624H         LINE#         178
  C:0627H         LINE#         179
  C:0629H         LINE#         180
  C:062BH         LINE#         181
  C:062DH         LINE#         183
  C:062DH         LINE#         184
  C:0630H         LINE#         185
  C:0632H         LINE#         186
  C:063CH         LINE#         187
  C:063EH         LINE#         188
  C:0647H         LINE#         189
  C:064AH         LINE#         190
  C:065CH         LINE#         191
  C:065EH         LINE#         193
  C:0660H         LINE#         194
  C:0663H         LINE#         195
  C:0663H         LINE#         196
  C:0663H         LINE#         197
  -------         ENDPROC       SYS_CCP_ISR
  -------         PROC          MYSTC_INIT
  C:0DA0H         LINE#         199
  C:0DA0H         LINE#         200
  C:0DA3H         LINE#         201
  C:0DA5H         LINE#         202
  -------         ENDPROC       MYSTC_INIT
  -------         PROC          SYS_TASK_IR
  -------         DO            
  D:0007H         SYMBOL        a
  -------         ENDDO         
  C:0837H         LINE#         204
  C:0837H         LINE#         205
  C:0837H         LINE#         206
  C:084DH         LINE#         207
  C:0854H         LINE#         208
  C:0857H         LINE#         209
  C:085AH         LINE#         210
  C:0870H         LINE#         211
  C:0880H         LINE#         212
  C:0888H         LINE#         213
BL51 BANKED LINKER/LOCATER V6.22                                                      07/23/2023  20:21:33  PAGE 15


  C:088BH         LINE#         214
  C:088DH         LINE#         216
  C:08A3H         LINE#         217
  C:08B7H         LINE#         218
  C:08B7H         LINE#         219
  C:08B9H         LINE#         220
  C:08BCH         LINE#         222
  C:08BCH         LINE#         224
  C:08BEH         LINE#         225
  C:08C1H         LINE#         226
  C:08C1H         LINE#         227
  -------         ENDPROC       SYS_TASK_IR
  -------         PROC          SYS_TASK_1MS
  C:03F6H         LINE#         229
  C:03F6H         LINE#         230
  C:03FEH         LINE#         231
  C:0401H         LINE#         232
  C:0403H         LINE#         233
  C:040BH         LINE#         234
  C:040EH         LINE#         235
  C:0410H         LINE#         236
  C:0418H         LINE#         237
  C:041BH         LINE#         238
  C:041DH         LINE#         239
  C:041DH         LINE#         240
  C:041DH         LINE#         241
  C:041DH         LINE#         242
  C:0429H         LINE#         243
  C:0435H         LINE#         244
  C:0441H         LINE#         245
  C:044DH         LINE#         246
  C:0459H         LINE#         247
  C:0465H         LINE#         248
  C:0480H         LINE#         249
  C:048FH         LINE#         250
  C:049BH         LINE#         251
  C:049DH         LINE#         252
  C:049DH         LINE#         253
  C:04A4H         LINE#         254
  C:04A7H         LINE#         255
  C:04B6H         LINE#         256
  C:04B8H         LINE#         257
  C:04B8H         LINE#         258
  C:04BAH         LINE#         260
  C:04C9H         LINE#         261
  C:04D5H         LINE#         262
  C:04D7H         LINE#         263
  C:04D7H         LINE#         264
  C:04D7H         LINE#         265
  -------         ENDPROC       SYS_TASK_1MS
  -------         PROC          SYS_TASK_10MS
  C:0718H         LINE#         268
  C:0718H         LINE#         269
  C:0724H         LINE#         270
  C:0730H         LINE#         271
  C:073CH         LINE#         272
  C:0748H         LINE#         273
BL51 BANKED LINKER/LOCATER V6.22                                                      07/23/2023  20:21:33  PAGE 16


  C:0763H         LINE#         274
  C:077EH         LINE#         275
  C:0799H         LINE#         276
  C:079CH         LINE#         277
  C:079EH         LINE#         278
  C:07AAH         LINE#         279
  C:07AAH         LINE#         280
  -------         ENDPROC       SYS_TASK_10MS
  -------         PROC          SYS_TASK_100MS
  C:0BAAH         LINE#         282
  C:0BAAH         LINE#         283
  C:0BB6H         LINE#         284
  C:0BD1H         LINE#         285
  C:0BDDH         LINE#         286
  -------         ENDPROC       SYS_TASK_100MS
  -------         PROC          SYS_TASK_1S
  C:0C8BH         LINE#         289
  C:0C8BH         LINE#         290
  C:0C99H         LINE#         291
  C:0C9FH         LINE#         292
  C:0CA8H         LINE#         293
  C:0CAAH         LINE#         294
  -------         ENDPROC       SYS_TASK_1S
  -------         PROC          MYSTC_OS
  C:0BE9H         LINE#         297
  C:0BE9H         LINE#         298
  C:0BF1H         LINE#         299
  C:0BF9H         LINE#         300
  C:0C01H         LINE#         301
  C:0C09H         LINE#         302
  C:0C11H         LINE#         303
  C:0C26H         LINE#         306
  -------         ENDPROC       MYSTC_OS
  -------         PROC          _SETEVENTCALLBACK
  D:0007H         SYMBOL        event
  D:0022H         SYMBOL        user_callback
  C:093FH         LINE#         308
  C:0945H         LINE#         309
  C:0976H         LINE#         310
  C:0979H         LINE#         311
  C:097BH         LINE#         312
  C:097EH         LINE#         313
  C:0980H         LINE#         314
  C:0983H         LINE#         315
  C:0985H         LINE#         316
  C:0988H         LINE#         317
  C:098AH         LINE#         318
  C:098DH         LINE#         319
  C:098FH         LINE#         320
  C:0992H         LINE#         321
  C:0994H         LINE#         322
  C:0997H         LINE#         323
  C:0999H         LINE#         324
  C:099CH         LINE#         325
  C:099EH         LINE#         326
  C:09A1H         LINE#         327
  C:09A3H         LINE#         328
BL51 BANKED LINKER/LOCATER V6.22                                                      07/23/2023  20:21:33  PAGE 17


  C:09A6H         LINE#         329
  C:09A8H         LINE#         330
  C:09ABH         LINE#         331
  C:09ADH         LINE#         332
  C:09BBH         LINE#         333
  C:09BBH         LINE#         334
  C:09BBH         LINE#         335
  C:09BBH         LINE#         336
  -------         ENDPROC       _SETEVENTCALLBACK
  -------         PROC          GETSYSPERFORMANCE
  C:0D8DH         LINE#         338
  C:0D8DH         LINE#         339
  C:0D93H         LINE#         340
  -------         ENDPROC       GETSYSPERFORMANCE
  -------         ENDMOD        SYS

  -------         MODULE        ?C?CLDOPTR
  C:003EH         PUBLIC        ?C?CLDOPTR
  -------         ENDMOD        ?C?CLDOPTR

  -------         MODULE        ?C?UIDIV
  C:006BH         PUBLIC        ?C?UIDIV
  -------         ENDMOD        ?C?UIDIV

  -------         MODULE        ?C?ILDPTR
  C:00C0H         PUBLIC        ?C?ILDPTR
  -------         ENDMOD        ?C?ILDPTR

  -------         MODULE        ?C?LMUL
  C:00EBH         PUBLIC        ?C?LMUL
  -------         ENDMOD        ?C?LMUL

  -------         MODULE        ?C?ULDIV
  C:0176H         PUBLIC        ?C?ULDIV
  -------         ENDMOD        ?C?ULDIV

  -------         MODULE        ?C?SLDIV
  C:0B66H         PUBLIC        ?C?SLDIV
  -------         ENDMOD        ?C?SLDIV

  -------         MODULE        ?C?SLSHR
  C:0208H         PUBLIC        ?C?SLSHR
  -------         ENDMOD        ?C?SLSHR

  -------         MODULE        ?C?LLDCODE
  C:021CH         PUBLIC        ?C?LLDCODE
  -------         ENDMOD        ?C?LLDCODE

  -------         MODULE        ?C?LSTXDATA
  C:022CH         PUBLIC        ?C?LSTXDATA
  -------         ENDMOD        ?C?LSTXDATA

  -------         MODULE        ?C?OFFXADD
  C:0238H         PUBLIC        ?C?OFFXADD
  -------         ENDMOD        ?C?OFFXADD

  -------         MODULE        ?C?ICALL
BL51 BANKED LINKER/LOCATER V6.22                                                      07/23/2023  20:21:33  PAGE 18


  C:0244H         PUBLIC        ?C?ICALL
  C:0248H         PUBLIC        ?C?ICALL2
  -------         ENDMOD        ?C?ICALL

  -------         MODULE        ?C_IBP
  D:001EH         PUBLIC        ?C_IBP
  -------         ENDMOD        ?C_IBP

*** WARNING L16: UNCALLED SEGMENT, IGNORED FOR OVERLAY PROCESS
    SEGMENT: ?PR?_GETADCNAVACT?ADC

*** WARNING L16: UNCALLED SEGMENT, IGNORED FOR OVERLAY PROCESS
    SEGMENT: ?PR?BEEPINIT?BEEP

*** WARNING L16: UNCALLED SEGMENT, IGNORED FOR OVERLAY PROCESS
    SEGMENT: ?PR?GETBEEPSTATUS?BEEP

*** WARNING L16: UNCALLED SEGMENT, IGNORED FOR OVERLAY PROCESS
    SEGMENT: ?PR?GETULTRASONIC?SYS

*** WARNING L16: UNCALLED SEGMENT, IGNORED FOR OVERLAY PROCESS
    SEGMENT: ?PR?GETSYSPERFORMANCE?SYS

Program Size: data=44.0 xdata=152 code=3497
LINK/LOCATE RUN COMPLETE.  5 WARNING(S),  0 ERROR(S)
